Certificate:
    Data:
        Version: 3 (0x2)
        Serial Number: 1 (0x1)
    Signature Algorithm: sha1WithRSAEncryption
        Issuer: DC=org, DC=simple, O=Simple Inc, OU=Simple Signing CA, CN=Simple Signing CA
        Validity
            Not Before: Dec  7 22:22:14 2018 GMT
            Not After : Dec  6 22:22:14 2020 GMT
        Subject: DC=org, DC=simple, O=Simple Inc, CN=Fred Flintstone
        Subject Public Key Info:
            Public Key Algorithm: rsaEncryption
                Public-Key: (2048 bit)
                Modulus:
                    00:be:b7:35:bd:d2:55:c8:fd:1f:67:10:e3:86:2e:
                    ec:30:35:13:a3:cd:78:b0:14:e0:e1:15:ab:a8:2d:
                    4d:17:d7:5c:38:98:4e:9a:0a:a0:75:7d:b9:16:c4:
                    d9:ae:1d:3d:87:1e:24:a4:53:eb:67:cc:d0:1b:c2:
                    cf:c9:91:c9:3a:b6:e5:81:c9:2f:de:27:bc:7a:0f:
                    ba:21:58:5c:e1:d7:70:b4:8a:e9:cd:c7:b5:cd:08:
                    c8:5d:9c:bb:45:45:11:5b:56:08:af:df:2b:1b:3a:
                    73:43:9f:bf:ea:ae:f0:09:34:2f:04:97:f9:24:bb:
                    58:f1:ed:a4:fb:be:4a:b6:12:5a:29:df:95:2c:77:
                    53:1b:73:1f:d4:db:9d:ca:09:6e:2e:b0:28:13:78:
                    87:98:17:30:41:a7:60:b6:73:aa:a3:55:52:da:36:
                    88:0b:5e:25:5d:09:fe:dd:91:cc:03:0d:75:6b:f9:
                    2e:20:b8:a0:45:1d:bc:11:b6:b1:fd:9b:5f:43:c6:
                    b7:ef:ca:4e:41:97:97:5c:c9:49:f0:35:40:05:20:
                    9c:ae:61:ed:a4:c5:b8:ee:b7:dc:b8:83:35:c0:c4:
                    8e:07:a4:b2:6b:a2:35:04:2f:29:5c:31:1d:2b:8f:
                    81:93:03:77:48:56:4b:e6:6a:ec:b6:ac:df:d7:f1:
                    dc:e9
                Exponent: 65537 (0x10001)
        X509v3 extensions:
            X509v3 Key Usage: critical
                Digital Signature, Key Encipherment
            X509v3 Basic Constraints: 
                CA:FALSE
            X509v3 Extended Key Usage: 
                E-mail Protection, TLS Web Client Authentication
            X509v3 Subject Key Identifier: 
                AE:4E:D5:CC:10:58:DF:7A:33:19:89:95:F9:94:54:7C:18:F0:6F:D7
            X509v3 Authority Key Identifier: 
                keyid:B7:6D:F4:9F:40:01:2E:34:0D:81:EC:A8:A5:09:DE:DF:B0:B9:9C:72

            X509v3 Subject Alternative Name: 
                email:fred@simple.org
    Signature Algorithm: sha1WithRSAEncryption
         48:a1:05:b6:46:36:5c:60:e8:d7:59:fa:20:0f:76:d8:81:bf:
         b3:9d:f8:de:ce:e5:55:bf:4f:f3:d5:cb:ad:24:d6:76:eb:eb:
         4c:30:4e:48:95:d0:95:79:a1:b7:21:95:94:e3:72:c3:17:dd:
         86:10:80:93:d0:15:29:34:ac:65:53:0c:16:79:a2:51:f2:d1:
         42:fe:53:21:50:39:7f:54:5e:df:fd:57:da:00:e4:9c:1f:de:
         45:fd:0f:f5:4e:92:2c:95:6e:f9:fd:8f:4e:96:03:8d:f7:2c:
         2c:4b:14:0c:44:eb:f5:76:fa:8a:c7:29:28:35:69:93:bb:49:
         5f:99:81:66:2f:00:14:e6:b0:29:6e:c0:77:3d:91:f5:c3:25:
         7a:fd:c7:cd:62:2d:6c:dc:5d:27:6f:5b:43:a7:5b:95:3f:02:
         cd:24:ae:94:8c:40:64:6a:6d:09:35:fc:c6:1e:38:9f:91:e7:
         b8:fe:0b:15:51:36:39:49:24:66:40:8a:c1:bd:17:fb:92:6b:
         20:77:58:b7:51:92:59:66:35:40:34:1b:f6:84:5e:cb:79:90:
         f1:81:45:bd:b6:36:f2:d1:84:e6:14:45:20:e0:aa:02:9d:46:
         51:42:19:c5:d7:36:96:53:b7:66:80:29:89:fb:ea:bd:bb:69:
         12:b2:d7:ba
-----BEGIN CERTIFICATE-----
MIID6zCCAtOgAwIBAgIBATANBgkqhkiG9w0BAQUFADB6MRMwEQYKCZImiZPyLGQB
GRYDb3JnMRYwFAYKCZImiZPyLGQBGRYGc2ltcGxlMRMwEQYDVQQKDApTaW1wbGUg
SW5jMRowGAYDVQQLDBFTaW1wbGUgU2lnbmluZyBDQTEaMBgGA1UEAwwRU2ltcGxl
IFNpZ25pbmcgQ0EwHhcNMTgxMjA3MjIyMjE0WhcNMjAxMjA2MjIyMjE0WjBcMRMw
EQYKCZImiZPyLGQBGRYDb3JnMRYwFAYKCZImiZPyLGQBGRYGc2ltcGxlMRMwEQYD
VQQKDApTaW1wbGUgSW5jMRgwFgYDVQQDDA9GcmVkIEZsaW50c3RvbmUwggEiMA0G
CSqGSIb3DQEBAQUAA4IBDwAwggEKAoIBAQC+tzW90lXI/R9nEOOGLuwwNROjzXiw
FODhFauoLU0X11w4mE6aCqB1fbkWxNmuHT2HHiSkU+tnzNAbws/Jkck6tuWByS/e
J7x6D7ohWFzh13C0iunNx7XNCMhdnLtFRRFbVgiv3ysbOnNDn7/qrvAJNC8El/kk
u1jx7aT7vkq2Elop35Usd1Mbcx/U253KCW4usCgTeIeYFzBBp2C2c6qjVVLaNogL
XiVdCf7dkcwDDXVr+S4guKBFHbwRtrH9m19Dxrfvyk5Bl5dcyUnwNUAFIJyuYe2k
xbjut9y4gzXAxI4HpLJrojUELylcMR0rj4GTA3dIVkvmauy2rN/X8dzpAgMBAAGj
gZkwgZYwDgYDVR0PAQH/BAQDAgWgMAkGA1UdEwQCMAAwHQYDVR0lBBYwFAYIKwYB
BQUHAwQGCCsGAQUFBwMCMB0GA1UdDgQWBBSuTtXMEFjfejMZiZX5lFR8GPBv1zAf
BgNVHSMEGDAWgBS3bfSfQAEuNA2B7KilCd7fsLmccjAaBgNVHREEEzARgQ9mcmVk
QHNpbXBsZS5vcmcwDQYJKoZIhvcNAQEFBQADggEBAEihBbZGNlxg6NdZ+iAPdtiB
v7Od+N7O5VW/T/PVy60k1nbr60wwTkiV0JV5obchlZTjcsMX3YYQgJPQFSk0rGVT
DBZ5olHy0UL+UyFQOX9UXt/9V9oA5Jwf3kX9D/VOkiyVbvn9j06WA433LCxLFAxE
6/V2+orHKSg1aZO7SV+ZgWYvABTmsCluwHc9kfXDJXr9x81iLWzcXSdvW0OnW5U/
As0krpSMQGRqbQk1/MYeOJ+R57j+CxVRNjlJJGZAisG9F/uSayB3WLdRkllmNUA0
G/aEXst5kPGBRb22NvLRhOYURSDgqgKdRlFCGcXXNpZTt2aAKYn76r27aRKy17o=
-----END CERTIFICATE-----
