Certificate:
    Data:
        Version: 3 (0x2)
        Serial Number: 2 (0x2)
    Signature Algorithm: sha1WithRSAEncryption
        Issuer: DC=org, DC=simple, O=Simple Inc, OU=Simple Signing CA, CN=Simple Signing CA
        Validity
            Not Before: Dec  7 22:26:45 2018 GMT
            Not After : Dec  6 22:26:45 2020 GMT
        Subject: DC=org, DC=simple, O=Simple Inc, CN=www.simple.org
        Subject Public Key Info:
            Public Key Algorithm: rsaEncryption
                Public-Key: (2048 bit)
                Modulus:
                    00:dc:b9:9e:60:4e:07:9a:b4:ae:15:b6:1e:ce:98:
                    bc:b8:69:5f:54:07:62:cc:2c:b3:4f:34:af:b6:26:
                    4e:82:90:99:da:72:19:bc:20:f6:88:dd:15:04:4a:
                    d7:13:be:fd:33:16:e0:c9:e3:16:e5:0f:ab:e6:83:
                    7e:07:b1:40:03:09:21:73:71:45:05:ea:f5:97:ba:
                    bd:74:a0:7a:a2:7e:b5:ea:e4:69:46:09:3e:2e:3b:
                    14:d0:81:0b:9c:08:90:92:75:a9:43:1f:90:d5:4d:
                    c7:a1:33:72:9c:94:0e:e4:35:66:56:60:4e:a8:bc:
                    f1:e8:de:27:25:ef:f5:af:bc:46:a9:07:b2:32:36:
                    d6:5c:cd:1b:10:39:60:e6:bb:8d:1a:74:6b:71:27:
                    2c:ba:af:5d:0f:04:08:24:95:c7:d6:52:b9:59:44:
                    fb:0e:b7:34:e3:00:96:1a:5e:04:18:11:04:4a:8b:
                    9b:62:55:c2:d7:20:3e:4a:5d:51:71:26:fb:9c:36:
                    12:b9:f4:39:2b:ca:62:95:74:89:2f:5b:e0:0a:3b:
                    f6:5e:c7:ad:5f:2c:17:0e:5b:65:95:6f:42:a7:4d:
                    b2:f5:e8:b8:a3:17:54:4f:1b:4e:c7:53:18:0a:51:
                    12:73:b3:ac:4f:65:7f:62:fa:fa:e8:92:95:2b:c9:
                    97:c3
                Exponent: 65537 (0x10001)
        X509v3 extensions:
            X509v3 Key Usage: critical
                Digital Signature, Key Encipherment
            X509v3 Basic Constraints: 
                CA:FALSE
            X509v3 Extended Key Usage: 
                TLS Web Server Authentication, TLS Web Client Authentication
            X509v3 Subject Key Identifier: 
                8C:96:7C:46:BF:57:C0:A7:88:EF:A8:F7:BA:77:D7:2A:DD:7C:93:DE
            X509v3 Authority Key Identifier: 
                keyid:B7:6D:F4:9F:40:01:2E:34:0D:81:EC:A8:A5:09:DE:DF:B0:B9:9C:72

            X509v3 Subject Alternative Name: 
                DNS:www.simple.org
    Signature Algorithm: sha1WithRSAEncryption
         21:f3:64:f6:8b:4e:ee:82:1c:28:d3:89:c1:3b:a4:9c:fc:56:
         48:e4:51:eb:08:e4:09:42:08:16:e8:15:ce:eb:68:7d:e2:82:
         3b:2e:b5:a6:61:e8:f3:06:61:67:1d:c5:50:c5:5f:48:3b:32:
         32:71:06:c3:69:60:21:b7:c4:f9:5f:7e:07:02:ca:4d:fa:c2:
         fd:b8:d2:29:b2:33:cd:0a:62:7e:93:d1:39:5a:6e:ea:78:d0:
         c4:6d:d4:58:91:58:c5:a3:ac:49:ee:44:52:2d:87:d3:82:25:
         60:6c:8f:b4:6d:db:ef:5f:bb:b9:1d:e9:b7:94:55:02:0d:3f:
         36:92:6d:7b:00:b0:07:01:f5:f5:9a:b8:e3:16:34:c1:99:16:
         e9:9c:7c:50:6f:2c:8a:48:e6:52:f8:d7:88:f4:d2:fd:e7:9e:
         7b:14:94:df:7d:98:df:dc:e9:c0:76:bd:f7:82:d6:69:ef:f6:
         9c:8d:cd:91:6c:ac:43:92:62:64:07:ae:13:a3:17:b9:0b:61:
         53:9b:bb:93:51:cb:09:26:db:c6:21:20:0e:c1:0f:da:74:24:
         d2:1f:bb:23:b5:01:8c:1d:02:1c:7c:54:80:f3:78:ec:e1:34:
         0a:df:f4:4f:f8:2b:cb:c6:94:ce:b5:d4:d6:82:1b:3b:61:df:
         bd:9c:85:b3
-----BEGIN CERTIFICATE-----
MIID6TCCAtGgAwIBAgIBAjANBgkqhkiG9w0BAQUFADB6MRMwEQYKCZImiZPyLGQB
GRYDb3JnMRYwFAYKCZImiZPyLGQBGRYGc2ltcGxlMRMwEQYDVQQKDApTaW1wbGUg
SW5jMRowGAYDVQQLDBFTaW1wbGUgU2lnbmluZyBDQTEaMBgGA1UEAwwRU2ltcGxl
IFNpZ25pbmcgQ0EwHhcNMTgxMjA3MjIyNjQ1WhcNMjAxMjA2MjIyNjQ1WjBbMRMw
EQYKCZImiZPyLGQBGRYDb3JnMRYwFAYKCZImiZPyLGQBGRYGc2ltcGxlMRMwEQYD
VQQKDApTaW1wbGUgSW5jMRcwFQYDVQQDDA53d3cuc2ltcGxlLm9yZzCCASIwDQYJ
KoZIhvcNAQEBBQADggEPADCCAQoCggEBANy5nmBOB5q0rhW2Hs6YvLhpX1QHYsws
s080r7YmToKQmdpyGbwg9ojdFQRK1xO+/TMW4MnjFuUPq+aDfgexQAMJIXNxRQXq
9Ze6vXSgeqJ+terkaUYJPi47FNCBC5wIkJJ1qUMfkNVNx6EzcpyUDuQ1ZlZgTqi8
8ejeJyXv9a+8RqkHsjI21lzNGxA5YOa7jRp0a3EnLLqvXQ8ECCSVx9ZSuVlE+w63
NOMAlhpeBBgRBEqLm2JVwtcgPkpdUXEm+5w2Ern0OSvKYpV0iS9b4Ao79l7HrV8s
Fw5bZZVvQqdNsvXouKMXVE8bTsdTGApREnOzrE9lf2L6+uiSlSvJl8MCAwEAAaOB
mDCBlTAOBgNVHQ8BAf8EBAMCBaAwCQYDVR0TBAIwADAdBgNVHSUEFjAUBggrBgEF
BQcDAQYIKwYBBQUHAwIwHQYDVR0OBBYEFIyWfEa/V8CniO+o97p31yrdfJPeMB8G
A1UdIwQYMBaAFLdt9J9AAS40DYHsqKUJ3t+wuZxyMBkGA1UdEQQSMBCCDnd3dy5z
aW1wbGUub3JnMA0GCSqGSIb3DQEBBQUAA4IBAQAh82T2i07ughwo04nBO6Sc/FZI
5FHrCOQJQggW6BXO62h94oI7LrWmYejzBmFnHcVQxV9IOzIycQbDaWAht8T5X34H
AspN+sL9uNIpsjPNCmJ+k9E5Wm7qeNDEbdRYkVjFo6xJ7kRSLYfTgiVgbI+0bdvv
X7u5Hem3lFUCDT82km17ALAHAfX1mrjjFjTBmRbpnHxQbyyKSOZS+NeI9NL95557
FJTffZjf3OnAdr33gtZp7/acjc2RbKxDkmJkB64Toxe5C2FTm7uTUcsJJtvGISAO
wQ/adCTSH7sjtQGMHQIcfFSA83js4TQK3/RP+CvLxpTOtdTWghs7Yd+9nIWz
-----END CERTIFICATE-----
