Certificate:
    Data:
        Version: 3 (0x2)
        Serial Number: 2 (0x2)
    Signature Algorithm: sha1WithRSAEncryption
        Issuer: DC=org, DC=simple, O=Simple Inc, OU=Simple Root CA, CN=Simple Root CA
        Validity
            Not Before: Dec  7 22:18:57 2018 GMT
            Not After : Dec  6 22:18:57 2028 GMT
        Subject: DC=org, DC=simple, O=Simple Inc, OU=Simple Signing CA, CN=Simple Signing CA
        Subject Public Key Info:
            Public Key Algorithm: rsaEncryption
                Public-Key: (2048 bit)
                Modulus:
                    00:a7:3f:27:9c:07:4b:f6:85:92:38:4d:d8:d0:13:
                    e1:10:6c:7d:16:4f:e8:af:fd:df:78:89:f9:77:21:
                    52:e9:6d:6d:1b:82:59:8d:3d:b2:b3:81:a3:fa:94:
                    53:6b:74:f3:60:c4:94:40:71:ea:39:f7:08:a6:68:
                    62:ce:43:42:a6:24:ae:c4:a1:ee:78:b6:75:31:5d:
                    dd:47:dc:e8:dd:1b:ae:ef:53:50:53:56:86:17:45:
                    1f:1a:8f:cb:32:92:ec:10:17:fd:9f:98:01:4a:c2:
                    d3:39:5f:d0:b0:9b:ef:1a:f6:e8:9c:a1:5e:02:33:
                    57:8a:3a:3b:87:63:e1:b4:fd:24:90:42:e8:40:ee:
                    44:91:f0:69:84:14:e0:48:fb:91:9f:a3:fa:28:f1:
                    db:10:9f:cf:1c:86:ac:f2:46:56:98:7d:df:e1:d6:
                    e4:5e:e4:96:ad:56:4c:c4:03:4d:4a:a0:6b:31:de:
                    b1:2a:2a:32:ab:13:d8:a5:97:24:1c:77:b9:4b:90:
                    9f:05:87:fe:d8:2c:4e:f3:99:f8:ed:ce:20:cd:52:
                    3d:96:6b:42:5b:83:18:c6:6e:36:0f:14:dd:fc:ff:
                    cc:74:05:b9:67:0d:8c:c2:2d:38:b1:1a:d0:91:d9:
                    29:60:82:c1:a2:1e:2a:f2:8d:a4:5a:c8:95:ba:e1:
                    86:59
                Exponent: 65537 (0x10001)
        X509v3 extensions:
            X509v3 Key Usage: critical
                Certificate Sign, CRL Sign
            X509v3 Basic Constraints: critical
                CA:TRUE, pathlen:0
            X509v3 Subject Key Identifier: 
                B7:6D:F4:9F:40:01:2E:34:0D:81:EC:A8:A5:09:DE:DF:B0:B9:9C:72
            X509v3 Authority Key Identifier: 
                keyid:B6:E4:5F:2D:B9:AA:AF:43:49:C8:CD:85:F0:CA:63:37:72:14:60:C5

    Signature Algorithm: sha1WithRSAEncryption
         31:c9:51:98:fb:2e:98:19:99:17:2e:67:cc:61:24:ba:99:d3:
         a5:84:b7:51:d7:c0:13:a3:85:9d:37:8a:fc:96:39:56:6f:58:
         a9:8d:98:bb:f9:77:19:40:dd:57:69:89:03:d6:99:1c:d3:34:
         31:5c:cc:df:28:6e:a7:72:da:09:be:31:80:0c:c8:e5:0f:c5:
         26:be:4d:9b:48:b7:1d:f3:a2:53:02:a5:d6:12:e4:52:ea:aa:
         14:42:74:74:eb:6b:3c:53:60:a4:60:ba:d3:54:4f:3f:65:60:
         68:e1:b2:cb:43:9e:d0:9b:e4:f0:40:14:e3:57:4c:41:90:df:
         55:f1:79:ff:64:95:ff:df:8c:df:ac:37:5e:4c:0b:4a:a8:12:
         00:03:b5:98:02:f3:06:72:c9:a9:2c:31:bd:b3:74:fc:d6:16:
         95:26:b4:c1:17:a9:9c:3f:ec:35:7e:c6:1a:78:f6:87:88:ea:
         32:cf:61:d8:c5:4b:df:57:52:0f:95:23:46:9a:e9:4a:ad:5d:
         ec:95:26:bd:b6:89:79:2f:49:2b:e4:6e:46:00:73:3b:1e:14:
         d4:c2:c7:54:f2:10:0e:c6:3e:1a:5c:89:79:fe:15:06:33:09:
         00:21:7c:f2:5a:9d:e5:35:70:9a:70:86:c0:ed:e7:8e:09:52:
         97:06:81:33
-----BEGIN CERTIFICATE-----
MIIDzzCCAregAwIBAgIBAjANBgkqhkiG9w0BAQUFADB0MRMwEQYKCZImiZPyLGQB
GRYDb3JnMRYwFAYKCZImiZPyLGQBGRYGc2ltcGxlMRMwEQYDVQQKDApTaW1wbGUg
SW5jMRcwFQYDVQQLDA5TaW1wbGUgUm9vdCBDQTEXMBUGA1UEAwwOU2ltcGxlIFJv
b3QgQ0EwHhcNMTgxMjA3MjIxODU3WhcNMjgxMjA2MjIxODU3WjB6MRMwEQYKCZIm
iZPyLGQBGRYDb3JnMRYwFAYKCZImiZPyLGQBGRYGc2ltcGxlMRMwEQYDVQQKDApT
aW1wbGUgSW5jMRowGAYDVQQLDBFTaW1wbGUgU2lnbmluZyBDQTEaMBgGA1UEAwwR
U2ltcGxlIFNpZ25pbmcgQ0EwggEiMA0GCSqGSIb3DQEBAQUAA4IBDwAwggEKAoIB
AQCnPyecB0v2hZI4TdjQE+EQbH0WT+iv/d94ifl3IVLpbW0bglmNPbKzgaP6lFNr
dPNgxJRAceo59wimaGLOQ0KmJK7Eoe54tnUxXd1H3OjdG67vU1BTVoYXRR8aj8sy
kuwQF/2fmAFKwtM5X9Cwm+8a9uicoV4CM1eKOjuHY+G0/SSQQuhA7kSR8GmEFOBI
+5Gfo/oo8dsQn88chqzyRlaYfd/h1uRe5JatVkzEA01KoGsx3rEqKjKrE9illyQc
d7lLkJ8Fh/7YLE7zmfjtziDNUj2Wa0JbgxjGbjYPFN38/8x0BblnDYzCLTixGtCR
2SlggsGiHiryjaRayJW64YZZAgMBAAGjZjBkMA4GA1UdDwEB/wQEAwIBBjASBgNV
HRMBAf8ECDAGAQH/AgEAMB0GA1UdDgQWBBS3bfSfQAEuNA2B7KilCd7fsLmccjAf
BgNVHSMEGDAWgBS25F8tuaqvQ0nIzYXwymM3chRgxTANBgkqhkiG9w0BAQUFAAOC
AQEAMclRmPsumBmZFy5nzGEkupnTpYS3UdfAE6OFnTeK/JY5Vm9YqY2Yu/l3GUDd
V2mJA9aZHNM0MVzM3yhup3LaCb4xgAzI5Q/FJr5Nm0i3HfOiUwKl1hLkUuqqFEJ0
dOtrPFNgpGC601RPP2VgaOGyy0Oe0Jvk8EAU41dMQZDfVfF5/2SV/9+M36w3XkwL
SqgSAAO1mALzBnLJqSwxvbN0/NYWlSa0wRepnD/sNX7GGnj2h4jqMs9h2MVL31dS
D5UjRprpSq1d7JUmvbaJeS9JK+RuRgBzOx4U1MLHVPIQDsY+GlyJef4VBjMJACF8
8lqd5TVwmnCGwO3njglSlwaBMw==
-----END CERTIFICATE-----
Certificate:
    Data:
        Version: 3 (0x2)
        Serial Number: 1 (0x1)
    Signature Algorithm: sha1WithRSAEncryption
        Issuer: DC=org, DC=simple, O=Simple Inc, OU=Simple Root CA, CN=Simple Root CA
        Validity
            Not Before: Dec  7 22:18:21 2018 GMT
            Not After : Dec  6 22:18:21 2028 GMT
        Subject: DC=org, DC=simple, O=Simple Inc, OU=Simple Root CA, CN=Simple Root CA
        Subject Public Key Info:
            Public Key Algorithm: rsaEncryption
                Public-Key: (2048 bit)
                Modulus:
                    00:9c:5a:83:21:f1:3d:08:68:c1:af:d5:4d:95:96:
                    c1:25:9e:18:99:81:c8:f6:24:6f:ea:96:27:da:8f:
                    27:8c:8b:b6:3a:21:36:68:c6:47:61:ac:6d:e4:79:
                    61:7c:63:36:70:e8:7a:ce:68:18:7e:63:9c:35:1f:
                    bd:18:3c:70:1e:59:b0:42:68:36:fa:75:cc:ad:7b:
                    9f:f4:b7:27:be:82:ee:84:51:62:b0:52:5b:74:0a:
                    de:a0:5d:8f:6c:01:cf:70:5e:be:19:d8:82:9c:57:
                    d5:e9:ef:f5:cc:aa:08:33:71:f2:09:ab:7c:a5:40:
                    ef:d6:23:a6:6e:14:20:1b:b1:c3:b6:bf:c8:cd:da:
                    e3:c4:60:e7:75:12:4b:9f:e6:a6:a9:ef:83:2e:c0:
                    77:4a:29:ed:26:42:d6:00:5f:82:4b:09:7c:24:85:
                    45:0c:f5:2d:59:3a:7c:d6:e0:1e:35:e8:3c:d0:7c:
                    f0:11:c2:f4:60:1b:65:c2:43:51:62:96:24:30:88:
                    81:f0:19:e3:df:06:78:07:d7:19:73:41:fa:5b:c3:
                    64:27:37:80:84:76:cd:18:03:95:be:e1:39:bf:b0:
                    40:a1:ff:76:4a:28:8c:f8:58:04:58:9d:e7:44:f7:
                    1b:06:ba:3f:9b:47:01:7c:47:3e:2d:50:0c:c7:55:
                    02:8f
                Exponent: 65537 (0x10001)
        X509v3 extensions:
            X509v3 Key Usage: critical
                Certificate Sign, CRL Sign
            X509v3 Basic Constraints: critical
                CA:TRUE
            X509v3 Subject Key Identifier: 
                B6:E4:5F:2D:B9:AA:AF:43:49:C8:CD:85:F0:CA:63:37:72:14:60:C5
            X509v3 Authority Key Identifier: 
                keyid:B6:E4:5F:2D:B9:AA:AF:43:49:C8:CD:85:F0:CA:63:37:72:14:60:C5

    Signature Algorithm: sha1WithRSAEncryption
         2e:24:63:46:4a:8c:64:54:36:63:44:1d:d0:ec:55:60:7d:74:
         26:19:e3:6f:7a:2e:a0:a1:f1:a2:3a:1c:71:56:2c:68:71:86:
         ae:28:ff:34:53:d0:6e:b2:fb:37:d9:3f:de:2c:02:01:ac:5f:
         a6:c1:d8:a6:45:2d:81:05:6c:74:df:9a:39:1b:26:42:17:ed:
         bd:d4:f4:82:a9:c9:63:b0:02:e8:4b:5e:6d:32:87:76:5b:7a:
         70:87:f5:95:b3:76:c4:8d:58:10:8c:0b:46:8a:cb:83:b7:fd:
         f1:c1:09:e4:b9:8a:d4:6b:47:e4:f7:98:0c:ba:c7:32:28:29:
         0f:44:09:05:4a:17:99:f7:4d:81:16:de:ae:d9:0f:25:ce:68:
         c1:67:a9:9f:c9:73:03:a4:f1:94:ec:82:6c:50:c8:bb:c7:cb:
         03:82:ba:f6:6e:6d:e6:74:9a:98:47:6f:62:97:fe:d3:a7:88:
         e7:21:e9:8f:41:68:36:43:e0:1c:56:5f:35:0f:66:e4:b2:64:
         8b:c0:c6:56:53:71:2f:63:ae:13:2c:82:a2:5e:51:69:86:28:
         81:cf:90:1c:71:4f:b8:f9:ed:98:83:04:9c:f9:81:87:50:58:
         95:6e:b9:2b:d1:7f:2d:1d:60:5f:8b:f2:19:df:67:00:43:d1:
         ec:4b:eb:c9
-----BEGIN CERTIFICATE-----
MIIDxjCCAq6gAwIBAgIBATANBgkqhkiG9w0BAQUFADB0MRMwEQYKCZImiZPyLGQB
GRYDb3JnMRYwFAYKCZImiZPyLGQBGRYGc2ltcGxlMRMwEQYDVQQKDApTaW1wbGUg
SW5jMRcwFQYDVQQLDA5TaW1wbGUgUm9vdCBDQTEXMBUGA1UEAwwOU2ltcGxlIFJv
b3QgQ0EwHhcNMTgxMjA3MjIxODIxWhcNMjgxMjA2MjIxODIxWjB0MRMwEQYKCZIm
iZPyLGQBGRYDb3JnMRYwFAYKCZImiZPyLGQBGRYGc2ltcGxlMRMwEQYDVQQKDApT
aW1wbGUgSW5jMRcwFQYDVQQLDA5TaW1wbGUgUm9vdCBDQTEXMBUGA1UEAwwOU2lt
cGxlIFJvb3QgQ0EwggEiMA0GCSqGSIb3DQEBAQUAA4IBDwAwggEKAoIBAQCcWoMh
8T0IaMGv1U2VlsElnhiZgcj2JG/qlifajyeMi7Y6ITZoxkdhrG3keWF8YzZw6HrO
aBh+Y5w1H70YPHAeWbBCaDb6dcyte5/0tye+gu6EUWKwUlt0Ct6gXY9sAc9wXr4Z
2IKcV9Xp7/XMqggzcfIJq3ylQO/WI6ZuFCAbscO2v8jN2uPEYOd1Ekuf5qap74Mu
wHdKKe0mQtYAX4JLCXwkhUUM9S1ZOnzW4B416DzQfPARwvRgG2XCQ1FiliQwiIHw
GePfBngH1xlzQfpbw2QnN4CEds0YA5W+4Tm/sECh/3ZKKIz4WARYnedE9xsGuj+b
RwF8Rz4tUAzHVQKPAgMBAAGjYzBhMA4GA1UdDwEB/wQEAwIBBjAPBgNVHRMBAf8E
BTADAQH/MB0GA1UdDgQWBBS25F8tuaqvQ0nIzYXwymM3chRgxTAfBgNVHSMEGDAW
gBS25F8tuaqvQ0nIzYXwymM3chRgxTANBgkqhkiG9w0BAQUFAAOCAQEALiRjRkqM
ZFQ2Y0Qd0OxVYH10Jhnjb3ouoKHxojoccVYsaHGGrij/NFPQbrL7N9k/3iwCAaxf
psHYpkUtgQVsdN+aORsmQhftvdT0gqnJY7AC6EtebTKHdlt6cIf1lbN2xI1YEIwL
RorLg7f98cEJ5LmK1GtH5PeYDLrHMigpD0QJBUoXmfdNgRbertkPJc5owWepn8lz
A6TxlOyCbFDIu8fLA4K69m5t5nSamEdvYpf+06eI5yHpj0FoNkPgHFZfNQ9m5LJk
i8DGVlNxL2OuEyyCol5RaYYogc+QHHFPuPntmIMEnPmBh1BYlW65K9F/LR1gX4vy
Gd9nAEPR7EvryQ==
-----END CERTIFICATE-----
